; Function Attrs: nounwind sspstrong uwtable
define dso_local i32 @job_cancel_sync(ptr noundef %0, i1 noundef zeroext %1) local_unnamed_addr #0 {
glib_autoptr_cleanup_QemuLockable.exit:
  %2 = load atomic i64, ptr @qemu_mutex_lock_func monotonic, align 8
  %3 = inttoptr i64 %2 to ptr
  tail call void %3(ptr noundef nonnull @job_mutex, ptr noundef nonnull @.str.29, i32 noundef 56) #15
  %job_force_cancel_err_locked.job_cancel_err_locked.i = select i1 %1, ptr @job_force_cancel_err_locked, ptr @job_cancel_err_locked
  %4 = tail call i32 @job_finish_sync_locked(ptr noundef %0, ptr noundef nonnull %job_force_cancel_err_locked.job_cancel_err_locked.i, ptr noundef null)
  tail call void @qemu_mutex_unlock_impl(ptr noundef nonnull @job_mutex, ptr noundef nonnull @.str.29, i32 noundef 56) #15
  ret i32 %4
}